; Function Attrs: mustprogress uwtable
define noundef zeroext i1 @_ZN3gmx30TrajectoryAnalysisRunnerCommon13readNextFrameEv(ptr nocapture noundef nonnull readonly align 8 dereferenceable(8) %0) local_unnamed_addr #0 align 2 {
  %2 = load ptr, ptr %0, align 8
  %3 = getelementptr inbounds i8, ptr %2, i64 144
  %4 = tail call noundef zeroext i1 @_ZNKSt7__cxx1112basic_stringIcSt11char_traitsIcESaIcEE5emptyEv(ptr noundef nonnull align 8 dereferenceable(32) %3) #13
  br i1 %4, label %.thread, label %5

5:                                                ; preds = %1
  %6 = load ptr, ptr %0, align 8
  %7 = getelementptr inbounds i8, ptr %6, i64 272
  %8 = load ptr, ptr %7, align 8
  %9 = getelementptr inbounds i8, ptr %6, i64 264
  %10 = load ptr, ptr %9, align 8
  %11 = getelementptr inbounds i8, ptr %6, i64 248
  %12 = load ptr, ptr %11, align 8
  %13 = tail call noundef zeroext i1 @_Z15read_next_framePK16gmx_output_env_tP11t_trxstatusP10t_trxframe(ptr noundef %8, ptr noundef %10, ptr noundef %12)
  br i1 %13, label %_ZN3gmx30TrajectoryAnalysisRunnerCommon4Impl16finishTrajectoryEv.exit, label %.thread

.thread:                                          ; preds = %1, %5
  %14 = load ptr, ptr %0, align 8
  %15 = getelementptr inbounds i8, ptr %14, i64 243
  %16 = load i8, ptr %15, align 1
  %17 = trunc i8 %16 to i1
  br i1 %17, label %18, label %21

18:                                               ; preds = %.thread
  %19 = getelementptr inbounds i8, ptr %14, i64 264
  %20 = load ptr, ptr %19, align 8
  tail call void @_Z9close_trxP11t_trxstatus(ptr noundef %20)
  store i8 0, ptr %15, align 1
  br label %21

21:                                               ; preds = %18, %.thread
  %22 = getelementptr inbounds i8, ptr %14, i64 256
  %23 = load ptr, ptr %22, align 8
  %.not.i = icmp eq ptr %23, null
  br i1 %.not.i, label %_ZN3gmx30TrajectoryAnalysisRunnerCommon4Impl16finishTrajectoryEv.exit, label %24

24:                                               ; preds = %21
  tail call void @_Z14gmx_rmpbc_doneP9gmx_rmpbc(ptr noundef nonnull %23)
  store ptr null, ptr %22, align 8
  br label %_ZN3gmx30TrajectoryAnalysisRunnerCommon4Impl16finishTrajectoryEv.exit

_ZN3gmx30TrajectoryAnalysisRunnerCommon4Impl16finishTrajectoryEv.exit: ; preds = %24, %21, %5
  %.04 = phi i1 [ true, %5 ], [ false, %21 ], [ false, %24 ]
  ret i1 %.04
}